(dp0
Vengine
p1
Vpdflatex
p2
sVpackages
p3
c__builtin__
set
p4
((lp5
Vamsmath
p6
aVamsfonts
p7
aVgraphicx
p8
aVamssymb
p9
atp10
Rp11
sVfiles_with_guttermarks
p12
g4
((lp13
S'sub_maureenchou.tex'
p14
aV/Users/zhoumaoying/Documents/github/20190820_beam_extension/sub2aam/sub_maureenchou.tex
p15
aV/Users/zhoumaoying/Documents/github/20190820_beam_extension/sub2aam/./sub_maureenchou.tex
p16
atp17
Rp18
sVsynctex
p19
I01
s.